target datalayout = "e-m:e-p270:32:32-p271:32:32-p272:64:64-i64:64-i128:128-f80:128-n8:16:32:64-S128"
target triple = "x86_64-pc-linux-gnu"

; Function Attrs: nounwind uwtable
define dso_local void @delete_object_files(ptr noundef %0, i64 noundef %1) #0 {
  %3 = alloca ptr, align 8
  %4 = alloca i64, align 8
  %5 = alloca i64, align 8
  store ptr %0, ptr %3, align 8
  store i64 %1, ptr %4, align 8
  store i64 0, ptr %5, align 8
  br label %6

6:                                                ; preds = %16, %2
  %7 = load i64, ptr %5, align 8
  %8 = load i64, ptr %4, align 8
  %9 = icmp ult i64 %7, %8
  br i1 %9, label %10, label %19

10:                                               ; preds = %6
  %11 = load ptr, ptr %3, align 8
  %12 = load i64, ptr %5, align 8
  %13 = getelementptr inbounds ptr, ptr %11, i64 %12
  %14 = load ptr, ptr %13, align 8
  %15 = call zeroext i1 @file_delete_file(ptr noundef %14)
  br label %16

16:                                               ; preds = %10
  %17 = load i64, ptr %5, align 8
  %18 = add i64 %17, 1
  store i64 %18, ptr %5, align 8
  br label %6, !llvm.loop !9

19:                                               ; preds = %6
  ret void
}