; Function Attrs: nounwind uwtable
define dso_local void @delete_object_files(ptr nocapture noundef readonly %0, i64 noundef %1) local_unnamed_addr #0 {
  %.not = icmp eq i64 %1, 0
  br i1 %.not, label %._crit_edge, label %.lr.ph

.lr.ph:                                           ; preds = %2, %.lr.ph
  %.04 = phi i64 [ %6, %.lr.ph ], [ 0, %2 ]
  %3 = getelementptr inbounds ptr, ptr %0, i64 %.04
  %4 = load ptr, ptr %3, align 8
  %5 = tail call zeroext i1 @file_delete_file(ptr noundef %4) #20
  %6 = add nuw i64 %.04, 1
  %exitcond.not = icmp eq i64 %6, %1
  br i1 %exitcond.not, label %._crit_edge, label %.lr.ph, !llvm.loop !9

._crit_edge:                                      ; preds = %.lr.ph, %2
  ret void
}